target datalayout = "e-m:e-p270:32:32-p271:32:32-p272:64:64-i64:64-i128:128-f80:128-n8:16:32:64-S128"
target triple = "x86_64-pc-linux-gnu"

%struct.mbedtls_ecp_keypair = type { %struct.mbedtls_ecp_group, %struct.mbedtls_mpi, %struct.mbedtls_ecp_point }
%struct.mbedtls_ecp_group = type { i32, %struct.mbedtls_mpi, %struct.mbedtls_mpi, %struct.mbedtls_mpi, %struct.mbedtls_ecp_point, %struct.mbedtls_mpi, i64, i64, i32, ptr, ptr, ptr, ptr, ptr, i64 }
%struct.mbedtls_mpi = type { ptr, i16, i16 }
%struct.mbedtls_ecp_point = type { %struct.mbedtls_mpi, %struct.mbedtls_mpi, %struct.mbedtls_mpi }
%struct.psa_key_attributes_s = type { i16, i16, i32, %struct.psa_key_policy_s, i32 }
%struct.psa_key_policy_s = type { i32, i32, i32 }
%struct.mbedtls_ecdh_context = type { i8, i32, i32, %union.anon }
%union.anon = type { %struct.mbedtls_ecdh_context_mbed }
%struct.mbedtls_ecdh_context_mbed = type { %struct.mbedtls_ecp_group, %struct.mbedtls_mpi, %struct.mbedtls_ecp_point, %struct.mbedtls_ecp_point, %struct.mbedtls_mpi }

; Function Attrs: nounwind uwtable
define hidden i32 @mbedtls_psa_key_agreement_ecdh(ptr noundef %0, ptr noundef %1, i64 noundef %2, i32 noundef %3, ptr noundef %4, i64 noundef %5, ptr noundef %6, i64 noundef %7, ptr noundef %8) #0 {
  %10 = alloca i32, align 4
  %11 = alloca ptr, align 8
  %12 = alloca ptr, align 8
  %13 = alloca i64, align 8
  %14 = alloca i32, align 4
  %15 = alloca ptr, align 8
  %16 = alloca i64, align 8
  %17 = alloca ptr, align 8
  %18 = alloca i64, align 8
  %19 = alloca ptr, align 8
  %20 = alloca i32, align 4
  %21 = alloca i32, align 4
  %22 = alloca ptr, align 8
  %23 = alloca ptr, align 8
  %24 = alloca %struct.mbedtls_ecdh_context, align 8
  %25 = alloca i64, align 8
  %26 = alloca i8, align 1
  store ptr %0, ptr %11, align 8, !tbaa !28
  store ptr %1, ptr %12, align 8, !tbaa !9
  store i64 %2, ptr %13, align 8, !tbaa !7
  store i32 %3, ptr %14, align 4, !tbaa !15
  store ptr %4, ptr %15, align 8, !tbaa !9
  store i64 %5, ptr %16, align 8, !tbaa !7
  store ptr %6, ptr %17, align 8, !tbaa !9
  store i64 %7, ptr %18, align 8, !tbaa !7
  store ptr %8, ptr %19, align 8, !tbaa !27
  call void @llvm.lifetime.start.p0(i64 4, ptr %20) #7
  %27 = load ptr, ptr %11, align 8, !tbaa !28
  %28 = getelementptr inbounds nuw %struct.psa_key_attributes_s, ptr %27, i32 0, i32 0
  %29 = load i16, ptr %28, align 4, !tbaa !30
  %30 = zext i16 %29 to i32
  %31 = and i32 %30, -256
  %32 = icmp eq i32 %31, 28928
  br i1 %32, label %33, label %38

33:                                               ; preds = %9
  %34 = load i32, ptr %14, align 4, !tbaa !15
  %35 = and i32 %34, -65536
  %36 = or i32 %35, 150994944
  %37 = icmp eq i32 %36, 151126016
  br i1 %37, label %39, label %38

38:                                               ; preds = %33, %9
  store i32 -135, ptr %10, align 4
  store i32 1, ptr %21, align 4
  br label %116

39:                                               ; preds = %33
  call void @llvm.lifetime.start.p0(i64 8, ptr %22) #7
  store ptr null, ptr %22, align 8, !tbaa !17
  %40 = load ptr, ptr %11, align 8, !tbaa !28
  %41 = getelementptr inbounds nuw %struct.psa_key_attributes_s, ptr %40, i32 0, i32 0
  %42 = load i16, ptr %41, align 4, !tbaa !30
  %43 = load ptr, ptr %11, align 8, !tbaa !28
  %44 = getelementptr inbounds nuw %struct.psa_key_attributes_s, ptr %43, i32 0, i32 1
  %45 = load i16, ptr %44, align 2, !tbaa !33
  %46 = zext i16 %45 to i64
  %47 = load ptr, ptr %12, align 8, !tbaa !9
  %48 = load i64, ptr %13, align 8, !tbaa !7
  %49 = call i32 @mbedtls_psa_ecp_load_representation(i16 noundef zeroext %42, i64 noundef %46, ptr noundef %47, i64 noundef %48, ptr noundef %22)
  store i32 %49, ptr %20, align 4, !tbaa !15
  %50 = load i32, ptr %20, align 4, !tbaa !15
  %51 = icmp ne i32 %50, 0
  br i1 %51, label %52, label %54

52:                                               ; preds = %39
  %53 = load i32, ptr %20, align 4, !tbaa !15
  store i32 %53, ptr %10, align 4
  store i32 1, ptr %21, align 4
  br label %115

54:                                               ; preds = %39
  call void @llvm.lifetime.start.p0(i64 8, ptr %23) #7
  store ptr null, ptr %23, align 8, !tbaa !17
  call void @llvm.lifetime.start.p0(i64 336, ptr %24) #7
  call void @llvm.lifetime.start.p0(i64 8, ptr %25) #7
  store i64 0, ptr %25, align 8, !tbaa !7
  call void @llvm.lifetime.start.p0(i64 1, ptr %26) #7
  %55 = load ptr, ptr %22, align 8, !tbaa !17
  %56 = getelementptr inbounds nuw %struct.mbedtls_ecp_keypair, ptr %55, i32 0, i32 0
  %57 = getelementptr inbounds nuw %struct.mbedtls_ecp_group, ptr %56, i32 0, i32 0
  %58 = load i32, ptr %57, align 8, !tbaa !19
  %59 = call zeroext i8 @mbedtls_ecc_group_to_psa(i32 noundef %58, ptr noundef %25)
  store i8 %59, ptr %26, align 1, !tbaa !26
  call void @mbedtls_ecdh_init(ptr noundef %24)
  %60 = load i8, ptr %26, align 1, !tbaa !26
  %61 = zext i8 %60 to i32
  %62 = or i32 16640, %61
  %63 = trunc i32 %62 to i16
  %64 = load i64, ptr %25, align 8, !tbaa !7
  %65 = load ptr, ptr %15, align 8, !tbaa !9
  %66 = load i64, ptr %16, align 8, !tbaa !7
  %67 = call i32 @mbedtls_psa_ecp_load_representation(i16 noundef zeroext %63, i64 noundef %64, ptr noundef %65, i64 noundef %66, ptr noundef %23)
  store i32 %67, ptr %20, align 4, !tbaa !15
  %68 = load i32, ptr %20, align 4, !tbaa !15
  %69 = icmp ne i32 %68, 0
  br i1 %69, label %70, label %71

70:                                               ; preds = %54
  br label %103

71:                                               ; preds = %54
  %72 = load ptr, ptr %23, align 8, !tbaa !17
  %73 = call i32 @mbedtls_ecdh_get_params(ptr noundef %24, ptr noundef %72, i32 noundef 1)
  %74 = call i32 @mbedtls_to_psa_error(i32 noundef %73)
  store i32 %74, ptr %20, align 4, !tbaa !15
  %75 = load i32, ptr %20, align 4, !tbaa !15
  %76 = icmp ne i32 %75, 0
  br i1 %76, label %77, label %78

77:                                               ; preds = %71
  br label %103

78:                                               ; preds = %71
  %79 = load ptr, ptr %22, align 8, !tbaa !17
  %80 = call i32 @mbedtls_ecdh_get_params(ptr noundef %24, ptr noundef %79, i32 noundef 0)
  %81 = call i32 @mbedtls_to_psa_error(i32 noundef %80)
  store i32 %81, ptr %20, align 4, !tbaa !15
  %82 = load i32, ptr %20, align 4, !tbaa !15
  %83 = icmp ne i32 %82, 0
  br i1 %83, label %84, label %85

84:                                               ; preds = %78
  br label %103

85:                                               ; preds = %78
  %86 = load ptr, ptr %19, align 8, !tbaa !27
  %87 = load ptr, ptr %17, align 8, !tbaa !9
  %88 = load i64, ptr %18, align 8, !tbaa !7
  %89 = call i32 @mbedtls_ecdh_calc_secret(ptr noundef %24, ptr noundef %86, ptr noundef %87, i64 noundef %88, ptr noundef @mbedtls_psa_get_random, ptr noundef null)
  %90 = call i32 @mbedtls_to_psa_error(i32 noundef %89)
  store i32 %90, ptr %20, align 4, !tbaa !15
  %91 = load i32, ptr %20, align 4, !tbaa !15
  %92 = icmp ne i32 %91, 0
  br i1 %92, label %93, label %94

93:                                               ; preds = %85
  br label %103

94:                                               ; preds = %85
  %95 = load i64, ptr %25, align 8, !tbaa !7
  %96 = add i64 %95, 7
  %97 = udiv i64 %96, 8
  %98 = load ptr, ptr %19, align 8, !tbaa !27
  %99 = load i64, ptr %98, align 8, !tbaa !7
  %100 = icmp ne i64 %97, %99
  br i1 %100, label %101, label %102

101:                                              ; preds = %94
  store i32 -151, ptr %20, align 4, !tbaa !15
  br label %102

102:                                              ; preds = %101, %94
  br label %103

103:                                              ; preds = %102, %93, %84, %77, %70
  %104 = load i32, ptr %20, align 4, !tbaa !15
  %105 = icmp ne i32 %104, 0
  br i1 %105, label %106, label %109

106:                                              ; preds = %103
  %107 = load ptr, ptr %17, align 8, !tbaa !9
  %108 = load i64, ptr %18, align 8, !tbaa !7
  call void @mbedtls_platform_zeroize(ptr noundef %107, i64 noundef %108)
  br label %109

109:                                              ; preds = %106, %103
  call void @mbedtls_ecdh_free(ptr noundef %24)
  %110 = load ptr, ptr %23, align 8, !tbaa !17
  call void @mbedtls_ecp_keypair_free(ptr noundef %110)
  %111 = load ptr, ptr %23, align 8, !tbaa !17
  call void @free(ptr noundef %111) #7
  %112 = load ptr, ptr %22, align 8, !tbaa !17
  call void @mbedtls_ecp_keypair_free(ptr noundef %112)
  %113 = load ptr, ptr %22, align 8, !tbaa !17
  call void @free(ptr noundef %113) #7
  %114 = load i32, ptr %20, align 4, !tbaa !15
  store i32 %114, ptr %10, align 4
  store i32 1, ptr %21, align 4
  call void @llvm.lifetime.end.p0(i64 1, ptr %26) #7
  call void @llvm.lifetime.end.p0(i64 8, ptr %25) #7
  call void @llvm.lifetime.end.p0(i64 336, ptr %24) #7
  call void @llvm.lifetime.end.p0(i64 8, ptr %23) #7
  br label %115

115:                                              ; preds = %109, %52
  call void @llvm.lifetime.end.p0(i64 8, ptr %22) #7
  br label %116

116:                                              ; preds = %115, %38
  call void @llvm.lifetime.end.p0(i64 4, ptr %20) #7
  %117 = load i32, ptr %10, align 4
  ret i32 %117
}