; Function Attrs: nounwind uwtable
define hidden i32 @mbedtls_psa_key_agreement_ecdh(ptr noundef readonly captures(none) %0, ptr noundef %1, i64 noundef %2, i32 noundef %3, ptr noundef %4, i64 noundef %5, ptr noundef %6, i64 noundef %7, ptr noundef %8) local_unnamed_addr #0 {
  %10 = alloca ptr, align 8
  %11 = alloca ptr, align 8
  %12 = alloca %struct.mbedtls_ecdh_context, align 8
  %13 = alloca i64, align 8
  %14 = load i16, ptr %0, align 4, !tbaa !18
  %15 = and i16 %14, -256
  %16 = icmp eq i16 %15, 28928
  %17 = and i32 %3, -151060480
  %18 = icmp eq i32 %17, 131072
  %or.cond = and i1 %18, %16
  br i1 %or.cond, label %19, label %49

19:                                               ; preds = %9
  call void @llvm.lifetime.start.p0(i64 8, ptr nonnull %10) #7
  store ptr null, ptr %10, align 8, !tbaa !16
  %20 = getelementptr inbounds nuw i8, ptr %0, i64 2
  %21 = load i16, ptr %20, align 2, !tbaa !21
  %22 = zext i16 %21 to i64
  %23 = call i32 @mbedtls_psa_ecp_load_representation(i16 noundef zeroext %14, i64 noundef %22, ptr noundef %1, i64 noundef %2, ptr noundef nonnull %10)
  %.not = icmp eq i32 %23, 0
  br i1 %.not, label %24, label %48

24:                                               ; preds = %19
  call void @llvm.lifetime.start.p0(i64 8, ptr nonnull %11) #7
  store ptr null, ptr %11, align 8, !tbaa !16
  call void @llvm.lifetime.start.p0(i64 336, ptr nonnull %12) #7
  call void @llvm.lifetime.start.p0(i64 8, ptr nonnull %13) #7
  store i64 0, ptr %13, align 8, !tbaa !23
  %25 = load ptr, ptr %10, align 8, !tbaa !16
  %26 = load i32, ptr %25, align 8, !tbaa !3
  %27 = call zeroext i8 @mbedtls_ecc_group_to_psa(i32 noundef %26, ptr noundef nonnull %13) #7
  call void @mbedtls_ecdh_init(ptr noundef nonnull %12) #7
  %28 = zext i8 %27 to i16
  %29 = or disjoint i16 %28, 16640
  %30 = load i64, ptr %13, align 8, !tbaa !23
  %31 = call i32 @mbedtls_psa_ecp_load_representation(i16 noundef zeroext %29, i64 noundef %30, ptr noundef %4, i64 noundef %5, ptr noundef nonnull %11)
  %.not30 = icmp eq i32 %31, 0
  %.pre.pre = load ptr, ptr %11, align 8, !tbaa !16
  br i1 %.not30, label %32, label %46

32:                                               ; preds = %24
  %33 = call i32 @mbedtls_ecdh_get_params(ptr noundef nonnull %12, ptr noundef %.pre.pre, i32 noundef 1) #7
  %34 = call i32 @mbedtls_to_psa_error(i32 noundef %33) #7
  %.not31 = icmp eq i32 %34, 0
  br i1 %.not31, label %35, label %46

35:                                               ; preds = %32
  %36 = call i32 @mbedtls_ecdh_get_params(ptr noundef nonnull %12, ptr noundef nonnull %25, i32 noundef 0) #7
  %37 = call i32 @mbedtls_to_psa_error(i32 noundef %36) #7
  %.not32 = icmp eq i32 %37, 0
  br i1 %.not32, label %38, label %46

38:                                               ; preds = %35
  %39 = call i32 @mbedtls_ecdh_calc_secret(ptr noundef nonnull %12, ptr noundef %8, ptr noundef %6, i64 noundef %7, ptr noundef nonnull @mbedtls_psa_get_random, ptr noundef null) #7
  %40 = call i32 @mbedtls_to_psa_error(i32 noundef %39) #7
  %.not33 = icmp eq i32 %40, 0
  br i1 %.not33, label %41, label %46

41:                                               ; preds = %38
  %42 = load i64, ptr %13, align 8, !tbaa !23
  %43 = add i64 %42, 7
  %44 = lshr i64 %43, 3
  %45 = load i64, ptr %8, align 8, !tbaa !23
  %.not34 = icmp eq i64 %44, %45
  br i1 %.not34, label %47, label %46

46:                                               ; preds = %24, %32, %35, %38, %41
  %.023.ph = phi i32 [ -151, %41 ], [ %40, %38 ], [ %37, %35 ], [ %34, %32 ], [ %31, %24 ]
  call void @mbedtls_platform_zeroize(ptr noundef %6, i64 noundef %7) #7
  br label %47

47:                                               ; preds = %41, %46
  %.02340 = phi i32 [ %.023.ph, %46 ], [ 0, %41 ]
  call void @mbedtls_ecdh_free(ptr noundef nonnull %12) #7
  call void @mbedtls_ecp_keypair_free(ptr noundef %.pre.pre) #7
  call void @free(ptr noundef %.pre.pre) #7
  call void @mbedtls_ecp_keypair_free(ptr noundef nonnull %25) #7
  call void @free(ptr noundef nonnull %25) #7
  call void @llvm.lifetime.end.p0(i64 8, ptr nonnull %13) #7
  call void @llvm.lifetime.end.p0(i64 336, ptr nonnull %12) #7
  call void @llvm.lifetime.end.p0(i64 8, ptr nonnull %11) #7
  br label %48

48:                                               ; preds = %19, %47
  %.1 = phi i32 [ %.02340, %47 ], [ %23, %19 ]
  call void @llvm.lifetime.end.p0(i64 8, ptr nonnull %10) #7
  br label %49

49:                                               ; preds = %9, %48
  %.0 = phi i32 [ %.1, %48 ], [ -135, %9 ]
  ret i32 %.0
}